; Function Attrs: mustprogress nounwind uwtable
define hidden void @_ZN20RangeCheckEliminator12update_boundER13GrowableArrayIiEP11InstructionNS3_9ConditionES4_i(ptr noundef nonnull align 8 dereferenceable(88) %0, ptr noundef nonnull align 8 dereferenceable(24) %1, ptr noundef %2, i32 noundef %3, ptr noundef %4, i32 noundef %5) local_unnamed_addr #0 align 2 {
  switch i32 %3, label %19 [
    i32 4, label %7
    i32 2, label %13
  ]

7:                                                ; preds = %6
  %8 = icmp eq i32 %5, 2147483647
  br i1 %8, label %9, label %11

9:                                                ; preds = %7
  %10 = icmp eq ptr %4, null
  br i1 %10, label %62, label %19

11:                                               ; preds = %7
  %12 = add nsw i32 %5, 1
  br label %19

13:                                               ; preds = %6
  %14 = icmp eq i32 %5, -2147483648
  br i1 %14, label %15, label %17

15:                                               ; preds = %13
  %16 = icmp eq ptr %4, null
  br i1 %16, label %62, label %19

17:                                               ; preds = %13
  %18 = add nsw i32 %5, -1
  br label %19

19:                                               ; preds = %15, %9, %6, %17, %11
  %.016 = phi i32 [ %12, %11 ], [ %18, %17 ], [ %5, %6 ], [ -2147483648, %9 ], [ 2147483647, %15 ]
  %.0 = phi i32 [ 5, %11 ], [ 3, %17 ], [ %3, %6 ], [ 5, %9 ], [ 3, %15 ]
  %20 = tail call align 8 ptr @llvm.threadlocal.address.p0(ptr align 8 @_ZN6Thread12_thr_currentE)
  %21 = load ptr, ptr %20, align 8
  %22 = getelementptr inbounds i8, ptr %21, i64 1808
  %23 = load ptr, ptr %22, align 8
  %24 = getelementptr inbounds i8, ptr %23, i64 128
  %25 = load ptr, ptr %24, align 8
  %26 = load ptr, ptr %25, align 8
  %27 = getelementptr inbounds i8, ptr %26, i64 40
  %28 = load ptr, ptr %27, align 8
  %29 = getelementptr inbounds i8, ptr %26, i64 32
  %30 = load ptr, ptr %29, align 8
  %31 = ptrtoint ptr %28 to i64
  %32 = ptrtoint ptr %30 to i64
  %33 = sub i64 %31, %32
  %.not.i.i.i = icmp ult i64 %33, 32
  br i1 %.not.i.i.i, label %36, label %34

34:                                               ; preds = %19
  %35 = getelementptr inbounds i8, ptr %30, i64 32
  store ptr %35, ptr %29, align 8
  br label %_ZN22CompilationResourceObjnwEm.exit

36:                                               ; preds = %19
  %37 = tail call noundef ptr @_ZN5Arena4growEmN17AllocFailStrategy13AllocFailEnumE(ptr noundef nonnull align 8 dereferenceable(48) %26, i64 noundef 32, i32 noundef 0) #13
  br label %_ZN22CompilationResourceObjnwEm.exit

_ZN22CompilationResourceObjnwEm.exit:             ; preds = %34, %36
  %.0.i.i.i = phi ptr [ %30, %34 ], [ %37, %36 ]
  %38 = icmp eq ptr %.0.i.i.i, null
  br i1 %38, label %_ZN20RangeCheckEliminator5BoundC2EN11Instruction9ConditionEPS1_i.exit, label %39

39:                                               ; preds = %_ZN22CompilationResourceObjnwEm.exit
  switch i32 %.0, label %60 [
    i32 0, label %40
    i32 1, label %44
    i32 5, label %52
    i32 3, label %56
  ]

40:                                               ; preds = %39
  %41 = getelementptr inbounds i8, ptr %.0.i.i.i, i64 16
  store i32 %.016, ptr %41, align 8
  %42 = getelementptr inbounds i8, ptr %.0.i.i.i, i64 24
  store ptr %4, ptr %42, align 8
  store i32 %.016, ptr %.0.i.i.i, align 8
  %43 = getelementptr inbounds i8, ptr %.0.i.i.i, i64 8
  store ptr %4, ptr %43, align 8
  br label %_ZN20RangeCheckEliminator5BoundC2EN11Instruction9ConditionEPS1_i.exit

44:                                               ; preds = %39
  %45 = getelementptr inbounds i8, ptr %.0.i.i.i, i64 16
  store i32 -2147483648, ptr %45, align 8
  store i32 2147483647, ptr %.0.i.i.i, align 8
  %46 = getelementptr inbounds i8, ptr %.0.i.i.i, i64 24
  store ptr null, ptr %46, align 8
  %47 = getelementptr inbounds i8, ptr %.0.i.i.i, i64 8
  store ptr null, ptr %47, align 8
  %48 = icmp eq ptr %4, null
  br i1 %48, label %49, label %_ZN20RangeCheckEliminator5BoundC2EN11Instruction9ConditionEPS1_i.exit

49:                                               ; preds = %44
  switch i32 %.016, label %_ZN20RangeCheckEliminator5BoundC2EN11Instruction9ConditionEPS1_i.exit [
    i32 -2147483648, label %50
    i32 2147483647, label %51
  ]

50:                                               ; preds = %49
  store i32 -2147483647, ptr %45, align 8
  br label %_ZN20RangeCheckEliminator5BoundC2EN11Instruction9ConditionEPS1_i.exit

51:                                               ; preds = %49
  store i32 2147483646, ptr %.0.i.i.i, align 8
  br label %_ZN20RangeCheckEliminator5BoundC2EN11Instruction9ConditionEPS1_i.exit

52:                                               ; preds = %39
  %53 = getelementptr inbounds i8, ptr %.0.i.i.i, i64 16
  store i32 %.016, ptr %53, align 8
  %54 = getelementptr inbounds i8, ptr %.0.i.i.i, i64 24
  store ptr %4, ptr %54, align 8
  store i32 2147483647, ptr %.0.i.i.i, align 8
  %55 = getelementptr inbounds i8, ptr %.0.i.i.i, i64 8
  store ptr null, ptr %55, align 8
  br label %_ZN20RangeCheckEliminator5BoundC2EN11Instruction9ConditionEPS1_i.exit

56:                                               ; preds = %39
  %57 = getelementptr inbounds i8, ptr %.0.i.i.i, i64 16
  store i32 -2147483648, ptr %57, align 8
  %58 = getelementptr inbounds i8, ptr %.0.i.i.i, i64 24
  store ptr null, ptr %58, align 8
  store i32 %.016, ptr %.0.i.i.i, align 8
  %59 = getelementptr inbounds i8, ptr %.0.i.i.i, i64 8
  store ptr %4, ptr %59, align 8
  br label %_ZN20RangeCheckEliminator5BoundC2EN11Instruction9ConditionEPS1_i.exit

60:                                               ; preds = %39
  %61 = load ptr, ptr @g_assert_poison, align 8
  store i8 88, ptr %61, align 1
  tail call void @_Z28report_should_not_reach_herePKci(ptr noundef nonnull @.str, i32 noundef 1352) #14
  unreachable

_ZN20RangeCheckEliminator5BoundC2EN11Instruction9ConditionEPS1_i.exit: ; preds = %56, %52, %51, %50, %49, %44, %40, %_ZN22CompilationResourceObjnwEm.exit
  tail call void @_ZN20RangeCheckEliminator12update_boundER13GrowableArrayIiEP11InstructionPNS_5BoundE(ptr noundef nonnull align 8 dereferenceable(88) %0, ptr noundef nonnull align 8 dereferenceable(24) %1, ptr noundef %2, ptr noundef %.0.i.i.i)
  br label %62

62:                                               ; preds = %15, %9, %_ZN20RangeCheckEliminator5BoundC2EN11Instruction9ConditionEPS1_i.exit
  ret void
}